; Function Attrs: mustprogress nounwind uwtable
define hidden void @_ZNK36FloatClassCheck_reg_reg_vfpclassNode4emitEP17C2_MacroAssemblerP13PhaseRegAlloc(ptr noundef nonnull align 8 dereferenceable(88) %0, ptr noundef %1, ptr noundef %2) unnamed_addr #3 align 2 {
  %4 = getelementptr inbounds i8, ptr %0, i64 64
  %5 = getelementptr inbounds i8, ptr %0, i64 72
  %6 = load ptr, ptr %5, align 8
  %7 = load ptr, ptr %6, align 8
  %8 = getelementptr inbounds i8, ptr %7, i64 8
  %9 = load ptr, ptr %8, align 8
  %10 = tail call noundef i32 %9(ptr noundef nonnull align 8 dereferenceable(8) %6) #23
  %11 = add i32 %10, 1
  %12 = getelementptr inbounds i8, ptr %0, i64 80
  %13 = load ptr, ptr %12, align 8
  %14 = load ptr, ptr %13, align 8
  %15 = getelementptr inbounds i8, ptr %14, i64 40
  %16 = load ptr, ptr %15, align 8
  %17 = tail call noundef i32 %16(ptr noundef nonnull align 8 dereferenceable(8) %13, ptr noundef %2, ptr noundef nonnull %0, i32 noundef %11) #23
  %or.cond.i.i = icmp ult i32 %17, 8
  %spec.select.i.i = select i1 %or.cond.i.i, i32 %17, i32 -1
  %18 = load ptr, ptr %5, align 8
  %19 = load ptr, ptr %18, align 8
  %20 = getelementptr inbounds i8, ptr %19, i64 40
  %21 = load ptr, ptr %20, align 8
  %22 = tail call noundef i32 %21(ptr noundef nonnull align 8 dereferenceable(8) %18, ptr noundef %2, ptr noundef nonnull %0, i32 noundef 1) #23
  %or.cond.i.i13 = icmp ult i32 %22, 32
  %spec.select.i.i14 = select i1 %or.cond.i.i13, i32 %22, i32 -1
  tail call void @_ZN9Assembler10vfpclassssE9KRegister11XMMRegisterh(ptr noundef nonnull align 8 dereferenceable(40) %1, i32 %spec.select.i.i, i32 %spec.select.i.i14, i8 noundef zeroext 24) #23
  %23 = load ptr, ptr %4, align 8
  %24 = load ptr, ptr %23, align 8
  %25 = getelementptr inbounds i8, ptr %24, i64 32
  %26 = load ptr, ptr %25, align 8
  %27 = tail call noundef i32 %26(ptr noundef nonnull align 8 dereferenceable(8) %23, ptr noundef %2, ptr noundef nonnull %0) #23
  %or.cond.i.i15 = icmp ult i32 %27, 32
  %spec.select.i.i16 = select i1 %or.cond.i.i15, i32 %27, i32 -1
  %28 = load ptr, ptr %12, align 8
  %29 = load ptr, ptr %28, align 8
  %30 = getelementptr inbounds i8, ptr %29, i64 40
  %31 = load ptr, ptr %30, align 8
  %32 = tail call noundef i32 %31(ptr noundef nonnull align 8 dereferenceable(8) %28, ptr noundef %2, ptr noundef nonnull %0, i32 noundef %11) #23
  %or.cond.i.i17 = icmp ult i32 %32, 8
  %spec.select.i.i18 = select i1 %or.cond.i.i17, i32 %32, i32 -1
  tail call void @_ZN9Assembler6kmovblE8Register9KRegister(ptr noundef nonnull align 8 dereferenceable(40) %1, i32 %spec.select.i.i16, i32 %spec.select.i.i18) #23
  ret void
}